; Function Attrs: mustprogress nofree norecurse nosync nounwind willreturn memory(readwrite, inaccessiblemem: none) uwtable
define range(i32 0, 128) i32 @ff_vvc_tu_cb_coded_flag(ptr noundef readonly captures(none) %0) local_unnamed_addr #2 {
  %2 = getelementptr inbounds nuw i8, ptr %0, i64 4580560
  %3 = load ptr, ptr %2, align 16, !tbaa !67
  %4 = getelementptr inbounds nuw i8, ptr %3, i64 2672
  %5 = getelementptr inbounds nuw i8, ptr %3, i64 400
  %6 = getelementptr inbounds nuw i8, ptr %0, i64 4547736
  %7 = load ptr, ptr %6, align 8, !tbaa !124
  %8 = getelementptr inbounds nuw i8, ptr %7, i64 76
  %9 = load i32, ptr %8, align 4, !tbaa !123
  %10 = sext i32 %9 to i64
  %11 = getelementptr %struct.VVCCabacState, ptr %5, i64 %10
  %12 = getelementptr i8, ptr %11, i64 822
  %13 = getelementptr inbounds nuw i8, ptr %3, i64 2676
  %14 = load i32, ptr %13, align 4, !tbaa !100
  %15 = ashr i32 %14, 5
  %16 = getelementptr i8, ptr %11, i64 824
  %17 = load i16, ptr %16, align 2, !tbaa !58
  %18 = zext i16 %17 to i32
  %19 = load i16, ptr %12, align 2, !tbaa !58
  %20 = zext i16 %19 to i32
  %21 = shl nuw nsw i32 %20, 4
  %22 = add nuw nsw i32 %21, %18
  %.not.i = icmp samesign ult i32 %22, 16384
  %23 = sub nsw i32 32767, %22
  %24 = select i1 %.not.i, i32 %22, i32 %23
  %25 = ashr i32 %24, 9
  %26 = mul nsw i32 %25, %15
  %27 = ashr i32 %26, 1
  %28 = add nsw i32 %27, 4
  %29 = sub nsw i32 %14, %28
  %30 = shl i32 %29, 17
  %31 = load i32, ptr %4, align 8, !tbaa !70
  %32 = icmp slt i32 %30, %31
  %33 = select i1 %32, i32 %30, i32 0
  %34 = sub nsw i32 %31, %33
  %35 = select i1 %32, i32 %28, i32 %29
  %36 = sext i32 %35 to i64
  %37 = getelementptr inbounds i8, ptr @ff_h264_cabac_tables, i64 %36
  %38 = load i8, ptr %37, align 1, !tbaa !97
  %39 = zext i8 %38 to i32
  %40 = shl i32 %35, %39
  store i32 %40, ptr %13, align 4, !tbaa !100
  %41 = shl i32 %34, %39
  store i32 %41, ptr %4, align 8, !tbaa !70
  %42 = and i32 %41, 65535
  %.not42.i = icmp eq i32 %42, 0
  br i1 %.not42.i, label %43, label %vvc_get_cabac.exit

43:                                               ; preds = %1
  %44 = add nsw i32 %41, -1
  %45 = xor i32 %44, %41
  %46 = lshr i32 %45, 15
  %47 = zext nneg i32 %46 to i64
  %48 = getelementptr inbounds nuw i8, ptr @ff_h264_cabac_tables, i64 %47
  %49 = load i8, ptr %48, align 1, !tbaa !97
  %50 = zext i8 %49 to i32
  %51 = sub nsw i32 7, %50
  %52 = getelementptr inbounds nuw i8, ptr %3, i64 2688
  %53 = load ptr, ptr %52, align 8, !tbaa !68
  %54 = load i8, ptr %53, align 1, !tbaa !97
  %55 = zext i8 %54 to i32
  %56 = shl nuw nsw i32 %55, 9
  %57 = getelementptr inbounds nuw i8, ptr %53, i64 1
  %58 = load i8, ptr %57, align 1, !tbaa !97
  %59 = zext i8 %58 to i32
  %60 = shl nuw nsw i32 %59, 1
  %61 = or disjoint i32 %60, %56
  %62 = add nsw i32 %61, -65535
  %63 = shl nsw i32 %62, %51
  %64 = add i32 %63, %41
  store i32 %64, ptr %4, align 8, !tbaa !70
  %65 = getelementptr inbounds nuw i8, ptr %3, i64 2696
  %66 = load ptr, ptr %65, align 8, !tbaa !71
  %67 = icmp ult ptr %53, %66
  br i1 %67, label %68, label %vvc_get_cabac.exit

68:                                               ; preds = %43
  %69 = getelementptr inbounds nuw i8, ptr %53, i64 2
  store ptr %69, ptr %52, align 8, !tbaa !68
  br label %vvc_get_cabac.exit

vvc_get_cabac.exit:                               ; preds = %1, %43, %68
  %70 = lshr i32 %22, 14
  %71 = zext i1 %32 to i32
  %72 = xor i32 %70, %71
  %73 = getelementptr i8, ptr %11, i64 826
  %74 = load i8, ptr %73, align 2, !tbaa !97
  %75 = zext i8 %74 to i32
  %76 = lshr i32 %20, %75
  %77 = sub nsw i32 %20, %76
  %78 = mul nuw nsw i32 %72, 1023
  %79 = lshr i32 %78, %75
  %80 = add nsw i32 %77, %79
  %81 = trunc i32 %80 to i16
  store i16 %81, ptr %12, align 2, !tbaa !58
  %82 = getelementptr i8, ptr %11, i64 827
  %83 = load i8, ptr %82, align 1, !tbaa !97
  %84 = zext i8 %83 to i32
  %85 = lshr i32 %18, %84
  %86 = sub nsw i32 %18, %85
  %87 = mul nuw nsw i32 %72, 16383
  %88 = lshr i32 %87, %84
  %89 = add nsw i32 %86, %88
  %90 = trunc i32 %89 to i16
  store i16 %90, ptr %16, align 2, !tbaa !58
  ret i32 %72
}